; Function Attrs: mustprogress nounwind uwtable
define hidden void @_ZN8IdealKit5else_Ev(ptr nocapture noundef nonnull align 8 dereferenceable(64) %0) local_unnamed_addr #0 align 2 {
  %2 = getelementptr inbounds i8, ptr %0, i64 16
  %3 = load ptr, ptr %2, align 8
  %4 = getelementptr inbounds i8, ptr %3, i64 8
  %5 = load ptr, ptr %4, align 8
  %6 = load i32, ptr %3, align 8
  %7 = add nsw i32 %6, -1
  store i32 %7, ptr %3, align 8
  %8 = sext i32 %7 to i64
  %9 = getelementptr inbounds ptr, ptr %5, i64 %8
  %10 = load ptr, ptr %9, align 8
  %11 = load ptr, ptr %2, align 8
  %12 = load i32, ptr %11, align 8
  %13 = getelementptr inbounds i8, ptr %11, i64 4
  %14 = load i32, ptr %13, align 4
  %15 = icmp eq i32 %12, %14
  br i1 %15, label %16, label %_ZN26GrowableArrayWithAllocatorIP4Node13GrowableArrayIS1_EE4pushERKS1_.exit

16:                                               ; preds = %1
  %17 = add nsw i32 %12, 1
  %18 = icmp sgt i32 %12, -1
  %19 = xor i32 %12, -2147483648
  %20 = and i32 %19, %17
  %21 = icmp eq i32 %20, 0
  %22 = and i1 %18, %21
  %23 = tail call range(i32 0, 33) i32 @llvm.ctlz.i32(i32 %17, i1 true)
  %24 = sub nuw nsw i32 32, %23
  %25 = shl nuw i32 1, %24
  %.0.i.i.i.i.i = select i1 %22, i32 %17, i32 %25
  tail call void @_ZN26GrowableArrayWithAllocatorIP4Node13GrowableArrayIS1_EE9expand_toEi(ptr noundef nonnull align 8 dereferenceable(16) %11, i32 noundef %.0.i.i.i.i.i)
  %.pre.i.i = load i32, ptr %11, align 8
  br label %_ZN26GrowableArrayWithAllocatorIP4Node13GrowableArrayIS1_EE4pushERKS1_.exit

_ZN26GrowableArrayWithAllocatorIP4Node13GrowableArrayIS1_EE4pushERKS1_.exit: ; preds = %1, %16
  %26 = phi i32 [ %.pre.i.i, %16 ], [ %12, %1 ]
  %27 = getelementptr inbounds i8, ptr %0, i64 24
  %28 = add nsw i32 %26, 1
  store i32 %28, ptr %11, align 8
  %29 = load ptr, ptr %27, align 8
  %30 = getelementptr inbounds i8, ptr %11, i64 8
  %31 = load ptr, ptr %30, align 8
  %32 = sext i32 %26 to i64
  %33 = getelementptr inbounds ptr, ptr %31, i64 %32
  store ptr %29, ptr %33, align 8
  store ptr %10, ptr %27, align 8
  ret void
}